; Function Attrs: nounwind uwtable
define dso_local range(i64 0, 2) i64 @in_range_timetz_interval(ptr noundef readonly captures(none) %0) local_unnamed_addr #0 {
  %2 = getelementptr inbounds nuw i8, ptr %0, i64 32
  %3 = load i64, ptr %2, align 8
  %4 = inttoptr i64 %3 to ptr
  %5 = getelementptr inbounds nuw i8, ptr %0, i64 48
  %6 = load i64, ptr %5, align 8
  %7 = inttoptr i64 %6 to ptr
  %8 = getelementptr inbounds nuw i8, ptr %0, i64 64
  %9 = load i64, ptr %8, align 8
  %10 = inttoptr i64 %9 to ptr
  %11 = getelementptr inbounds nuw i8, ptr %0, i64 96
  %12 = load i64, ptr %11, align 8
  %13 = icmp ne i64 %12, 0
  %14 = load i64, ptr %10, align 8
  %15 = icmp slt i64 %14, 0
  br i1 %15, label %16, label %20

16:                                               ; preds = %1
  %17 = tail call zeroext i1 @errstart_cold(i32 noundef 21, ptr noundef null) #15
  tail call void @llvm.assume(i1 %17)
  %18 = tail call i32 @errcode(i32 noundef 50593922) #16
  %19 = tail call i32 (ptr, ...) @errmsg(ptr noundef nonnull @.str.26) #16
  tail call void @errfinish(ptr noundef nonnull @.str.3, i32 noundef 2686, ptr noundef nonnull @__func__.in_range_timetz_interval) #16
  unreachable

20:                                               ; preds = %1
  %21 = getelementptr inbounds nuw i8, ptr %0, i64 80
  %22 = load i64, ptr %21, align 8
  %.not = icmp eq i64 %22, 0
  %23 = load i64, ptr %7, align 8
  br i1 %.not, label %26, label %24

24:                                               ; preds = %20
  %25 = sub i64 %23, %14
  br label %30

26:                                               ; preds = %20
  %27 = tail call { i64, i1 } @llvm.sadd.with.overflow.i64(i64 %23, i64 range(i64 0, -9223372036854775808) %14)
  %28 = extractvalue { i64, i1 } %27, 1
  %29 = extractvalue { i64, i1 } %27, 0
  br i1 %28, label %timetz_cmp_internal.exit, label %30

30:                                               ; preds = %26, %24
  %.sroa.0.0 = phi i64 [ %25, %24 ], [ %29, %26 ]
  %31 = getelementptr inbounds nuw i8, ptr %7, i64 8
  %32 = load i32, ptr %31, align 8
  %.val20 = load i64, ptr %4, align 8
  %33 = getelementptr i8, ptr %4, i64 8
  %.val21 = load i32, ptr %33, align 8
  %34 = sext i32 %.val21 to i64
  %35 = mul nsw i64 %34, 1000000
  %36 = add i64 %35, %.val20
  %37 = sext i32 %32 to i64
  %38 = mul nsw i64 %37, 1000000
  %39 = add i64 %38, %.sroa.0.0
  %40 = icmp sgt i64 %36, %39
  br i1 %13, label %41, label %45

41:                                               ; preds = %30
  br i1 %40, label %timetz_cmp_internal.exit, label %42

42:                                               ; preds = %41
  %43 = icmp slt i64 %36, %39
  %44 = icmp sle i32 %.val21, %32
  %spec.select = select i1 %43, i1 true, i1 %44
  br label %timetz_cmp_internal.exit

45:                                               ; preds = %30
  br i1 %40, label %timetz_cmp_internal.exit, label %46

46:                                               ; preds = %45
  %47 = icmp sge i64 %36, %39
  %48 = icmp sge i32 %.val21, %32
  %spec.select30 = select i1 %47, i1 %48, i1 false
  br label %timetz_cmp_internal.exit

timetz_cmp_internal.exit:                         ; preds = %46, %42, %26, %45, %41
  %.0.shrunk = phi i1 [ false, %41 ], [ true, %45 ], [ %13, %26 ], [ %spec.select, %42 ], [ %spec.select30, %46 ]
  %.0 = zext i1 %.0.shrunk to i64
  ret i64 %.0
}